target datalayout = "e-m:e-p270:32:32-p271:32:32-p272:64:64-i64:64-i128:128-f80:128-n8:16:32:64-S128"
target triple = "x86_64-pc-linux-gnu"

; Function Attrs: nounwind uwtable
define internal i32 @md_read(ptr noundef %0, ptr noundef %1, i32 noundef %2) #0 {
  %4 = alloca i32, align 4
  %5 = alloca ptr, align 8
  %6 = alloca ptr, align 8
  %7 = alloca i32, align 4
  %8 = alloca i32, align 4
  %9 = alloca ptr, align 8
  %10 = alloca ptr, align 8
  %11 = alloca i32, align 4
  store ptr %0, ptr %5, align 8, !tbaa !3
  store ptr %1, ptr %6, align 8, !tbaa !8
  store i32 %2, ptr %7, align 4, !tbaa !10
  call void @llvm.lifetime.start.p0(i64 4, ptr %8) #3
  store i32 0, ptr %8, align 4, !tbaa !10
  call void @llvm.lifetime.start.p0(i64 8, ptr %9) #3
  call void @llvm.lifetime.start.p0(i64 8, ptr %10) #3
  %12 = load ptr, ptr %6, align 8, !tbaa !8
  %13 = icmp eq ptr %12, null
  br i1 %13, label %14, label %15

14:                                               ; preds = %3
  store i32 0, ptr %4, align 4
  store i32 1, ptr %11, align 4
  br label %51

15:                                               ; preds = %3
  %16 = load ptr, ptr %5, align 8, !tbaa !3
  %17 = call ptr @BIO_get_data(ptr noundef %16)
  store ptr %17, ptr %9, align 8, !tbaa !12
  %18 = load ptr, ptr %5, align 8, !tbaa !3
  %19 = call ptr @BIO_next(ptr noundef %18)
  store ptr %19, ptr %10, align 8, !tbaa !3
  %20 = load ptr, ptr %9, align 8, !tbaa !12
  %21 = icmp eq ptr %20, null
  br i1 %21, label %25, label %22

22:                                               ; preds = %15
  %23 = load ptr, ptr %10, align 8, !tbaa !3
  %24 = icmp eq ptr %23, null
  br i1 %24, label %25, label %26

25:                                               ; preds = %22, %15
  store i32 0, ptr %4, align 4
  store i32 1, ptr %11, align 4
  br label %51

26:                                               ; preds = %22
  %27 = load ptr, ptr %10, align 8, !tbaa !3
  %28 = load ptr, ptr %6, align 8, !tbaa !8
  %29 = load i32, ptr %7, align 4, !tbaa !10
  %30 = call i32 @BIO_read(ptr noundef %27, ptr noundef %28, i32 noundef %29)
  store i32 %30, ptr %8, align 4, !tbaa !10
  %31 = load ptr, ptr %5, align 8, !tbaa !3
  %32 = call i32 @BIO_get_init(ptr noundef %31)
  %33 = icmp ne i32 %32, 0
  br i1 %33, label %34, label %47

34:                                               ; preds = %26
  %35 = load i32, ptr %8, align 4, !tbaa !10
  %36 = icmp sgt i32 %35, 0
  br i1 %36, label %37, label %46

37:                                               ; preds = %34
  %38 = load ptr, ptr %9, align 8, !tbaa !12
  %39 = load ptr, ptr %6, align 8, !tbaa !8
  %40 = load i32, ptr %8, align 4, !tbaa !10
  %41 = zext i32 %40 to i64
  %42 = call i32 @EVP_DigestUpdate(ptr noundef %38, ptr noundef %39, i64 noundef %41)
  %43 = icmp sle i32 %42, 0
  br i1 %43, label %44, label %45

44:                                               ; preds = %37
  store i32 -1, ptr %4, align 4
  store i32 1, ptr %11, align 4
  br label %51

45:                                               ; preds = %37
  br label %46

46:                                               ; preds = %45, %34
  br label %47

47:                                               ; preds = %46, %26
  %48 = load ptr, ptr %5, align 8, !tbaa !3
  call void @BIO_clear_flags(ptr noundef %48, i32 noundef 15)
  %49 = load ptr, ptr %5, align 8, !tbaa !3
  call void @BIO_copy_next_retry(ptr noundef %49)
  %50 = load i32, ptr %8, align 4, !tbaa !10
  store i32 %50, ptr %4, align 4
  store i32 1, ptr %11, align 4
  br label %51

51:                                               ; preds = %47, %44, %25, %14
  call void @llvm.lifetime.end.p0(i64 8, ptr %10) #3
  call void @llvm.lifetime.end.p0(i64 8, ptr %9) #3
  call void @llvm.lifetime.end.p0(i64 4, ptr %8) #3
  %52 = load i32, ptr %4, align 4
  ret i32 %52
}