; Function Attrs: nounwind uwtable
define internal i32 @md_read(ptr noundef %0, ptr noundef %1, i32 noundef %2) #2 {
  %4 = icmp eq ptr %1, null
  br i1 %4, label %20, label %5

5:                                                ; preds = %3
  %6 = tail call ptr @BIO_get_data(ptr noundef %0) #4
  %7 = tail call ptr @BIO_next(ptr noundef %0) #4
  %8 = icmp eq ptr %6, null
  %9 = icmp eq ptr %7, null
  %or.cond = select i1 %8, i1 true, i1 %9
  br i1 %or.cond, label %20, label %10

10:                                               ; preds = %5
  %11 = tail call i32 @BIO_read(ptr noundef nonnull %7, ptr noundef nonnull %1, i32 noundef %2) #4
  %12 = tail call i32 @BIO_get_init(ptr noundef %0) #4
  %13 = icmp ne i32 %12, 0
  %14 = icmp sgt i32 %11, 0
  %or.cond3 = select i1 %13, i1 %14, i1 false
  br i1 %or.cond3, label %15, label %19

15:                                               ; preds = %10
  %16 = zext nneg i32 %11 to i64
  %17 = tail call i32 @EVP_DigestUpdate(ptr noundef nonnull %6, ptr noundef nonnull %1, i64 noundef %16) #4
  %18 = icmp slt i32 %17, 1
  br i1 %18, label %20, label %19

19:                                               ; preds = %15, %10
  tail call void @BIO_clear_flags(ptr noundef %0, i32 noundef 15) #4
  tail call void @BIO_copy_next_retry(ptr noundef %0) #4
  br label %20

20:                                               ; preds = %15, %5, %3, %19
  %.0 = phi i32 [ %11, %19 ], [ 0, %3 ], [ 0, %5 ], [ -1, %15 ]
  ret i32 %.0
}